target datalayout = "e-m:e-p270:32:32-p271:32:32-p272:64:64-i64:64-i128:128-f80:128-n8:16:32:64-S128"
target triple = "x86_64-pc-linux-gnu"

%struct.RepeatBitmapControl = type { i64, i64 }

; Function Attrs: alwaysinline nounwind uwtable
define internal i32 @clz64(i64 noundef %0) #2 {
  %2 = alloca i64, align 8
  store i64 %0, ptr %2, align 8
  %3 = load i64, ptr %2, align 8
  %4 = call i64 @llvm.ctlz.i64(i64 %3, i1 true)
  %5 = trunc i64 %4 to i32
  ret i32 %5
}

; Function Attrs: nounwind uwtable
define hidden i64 @repeatLastTopBitmap(ptr noundef %0) #0 {
  %2 = alloca i64, align 8
  %3 = alloca ptr, align 8
  %4 = alloca ptr, align 8
  %5 = alloca i32, align 4
  store ptr %0, ptr %3, align 8
  call void @llvm.lifetime.start.p0(i64 8, ptr %4) #7
  %6 = load ptr, ptr %3, align 8
  store ptr %6, ptr %4, align 8
  %7 = load ptr, ptr %4, align 8
  %8 = getelementptr inbounds nuw %struct.RepeatBitmapControl, ptr %7, i32 0, i32 1
  %9 = load i64, ptr %8, align 8
  %10 = icmp ne i64 %9, 0
  br i1 %10, label %12, label %11

11:                                               ; preds = %1
  store i64 0, ptr %2, align 8
  store i32 1, ptr %5, align 4
  br label %23

12:                                               ; preds = %1
  %13 = load ptr, ptr %4, align 8
  %14 = getelementptr inbounds nuw %struct.RepeatBitmapControl, ptr %13, i32 0, i32 0
  %15 = load i64, ptr %14, align 8
  %16 = add i64 %15, 63
  %17 = load ptr, ptr %4, align 8
  %18 = getelementptr inbounds nuw %struct.RepeatBitmapControl, ptr %17, i32 0, i32 1
  %19 = load i64, ptr %18, align 8
  %20 = call i32 @clz64(i64 noundef %19)
  %21 = zext i32 %20 to i64
  %22 = sub i64 %16, %21
  store i64 %22, ptr %2, align 8
  store i32 1, ptr %5, align 4
  br label %23

23:                                               ; preds = %12, %11
  call void @llvm.lifetime.end.p0(i64 8, ptr %4) #7
  %24 = load i64, ptr %2, align 8
  ret i64 %24
}